target datalayout = "e-m:e-p270:32:32-p271:32:32-p272:64:64-i64:64-i128:128-f80:128-n8:16:32:64-S128"
target triple = "x86_64-pc-linux-gnu"

@hf_elink_interface_label = internal global i32 0, align 4
@hf_lldp_subtype = internal global i32 0, align 4
@hf_lldp_mac_address = internal global i32 0, align 4

; Function Attrs: null_pointer_is_valid sspstrong uwtable
define hidden i32 @dissect_lldp_cip_tlv(ptr noundef %0, ptr noundef %1, ptr noundef %2) #0 {
  %4 = alloca ptr, align 8
  %5 = alloca ptr, align 8
  %6 = alloca ptr, align 8
  %7 = alloca i32, align 4
  %8 = alloca i32, align 4
  %9 = alloca i32, align 4
  %10 = alloca i32, align 4
  store ptr %0, ptr %4, align 8
  store ptr %1, ptr %5, align 8
  store ptr %2, ptr %6, align 8
  call void @llvm.lifetime.start.p0(i64 4, ptr %7) #14
  %11 = load ptr, ptr %4, align 8
  %12 = call i32 @tvb_reported_length_remaining(ptr noundef %11, i32 noundef 0)
  store i32 %12, ptr %7, align 4
  call void @llvm.lifetime.start.p0(i64 4, ptr %8) #14
  store i32 0, ptr %8, align 4
  call void @llvm.lifetime.start.p0(i64 4, ptr %9) #14
  %13 = load ptr, ptr %6, align 8
  %14 = load i32, ptr @hf_lldp_subtype, align 4
  %15 = load ptr, ptr %4, align 8
  %16 = load i32, ptr %8, align 4
  %17 = call ptr @proto_tree_add_item_ret_uint(ptr noundef %13, i32 noundef %14, ptr noundef %15, i32 noundef %16, i32 noundef 1, i32 noundef 0, ptr noundef %9)
  %18 = load i32, ptr %8, align 4
  %19 = add i32 %18, 1
  store i32 %19, ptr %8, align 4
  %20 = load i32, ptr %9, align 4
  switch i32 %20, label %46 [
    i32 1, label %21
    i32 2, label %26
    i32 3, label %32
    i32 9, label %41
  ]

21:                                               ; preds = %3
  %22 = load ptr, ptr %4, align 8
  %23 = load i32, ptr %8, align 4
  %24 = load ptr, ptr %6, align 8
  %25 = call i32 @dissect_electronic_key_format(ptr noundef %22, i32 noundef %23, ptr noundef %24, i1 noundef zeroext false, i8 noundef zeroext 5, i32 noundef -2147483648)
  br label %47

26:                                               ; preds = %3
  %27 = load ptr, ptr %6, align 8
  %28 = load i32, ptr @hf_lldp_mac_address, align 4
  %29 = load ptr, ptr %4, align 8
  %30 = load i32, ptr %8, align 4
  %31 = call ptr @proto_tree_add_item(ptr noundef %27, i32 noundef %28, ptr noundef %29, i32 noundef %30, i32 noundef 6, i32 noundef 0)
  br label %47

32:                                               ; preds = %3
  call void @llvm.lifetime.start.p0(i64 4, ptr %10) #14
  %33 = load i32, ptr %7, align 4
  %34 = sub i32 %33, 1
  store i32 %34, ptr %10, align 4
  %35 = load ptr, ptr %6, align 8
  %36 = load i32, ptr @hf_elink_interface_label, align 4
  %37 = load ptr, ptr %4, align 8
  %38 = load i32, ptr %8, align 4
  %39 = load i32, ptr %10, align 4
  %40 = call ptr @proto_tree_add_item(ptr noundef %35, i32 noundef %36, ptr noundef %37, i32 noundef %38, i32 noundef %39, i32 noundef 0)
  call void @llvm.lifetime.end.p0(i64 4, ptr %10) #14
  br label %47

41:                                               ; preds = %3
  %42 = load ptr, ptr %4, align 8
  %43 = load i32, ptr %8, align 4
  %44 = load ptr, ptr %6, align 8
  %45 = call i32 @dissect_electronic_key_format(ptr noundef %42, i32 noundef %43, ptr noundef %44, i1 noundef zeroext false, i8 noundef zeroext 5, i32 noundef 0)
  br label %47

46:                                               ; preds = %3
  br label %47

47:                                               ; preds = %46, %41, %32, %26, %21
  %48 = load ptr, ptr %4, align 8
  %49 = call i32 @tvb_reported_length(ptr noundef %48)
  call void @llvm.lifetime.end.p0(i64 4, ptr %9) #14
  call void @llvm.lifetime.end.p0(i64 4, ptr %8) #14
  call void @llvm.lifetime.end.p0(i64 4, ptr %7) #14
  ret i32 %49
}