; Function Attrs: null_pointer_is_valid sspstrong uwtable
define hidden i32 @dissect_lldp_cip_tlv(ptr noundef %0, ptr noundef readnone captures(none) %1, ptr noundef %2) local_unnamed_addr #0 {
  %4 = alloca i32, align 4
  %5 = tail call i32 @tvb_reported_length_remaining(ptr noundef %0, i32 noundef 0)
  call void @llvm.lifetime.start.p0(i64 4, ptr nonnull %4) #12
  %6 = load i32, ptr @hf_lldp_subtype, align 4
  %7 = call ptr @proto_tree_add_item_ret_uint(ptr noundef %2, i32 noundef %6, ptr noundef %0, i32 noundef 0, i32 noundef 1, i32 noundef 0, ptr noundef nonnull %4)
  %8 = load i32, ptr %4, align 4
  switch i32 %8, label %20 [
    i32 1, label %9
    i32 2, label %11
    i32 3, label %14
    i32 9, label %18
  ]

9:                                                ; preds = %3
  %10 = call i32 @dissect_electronic_key_format(ptr noundef %0, i32 noundef 1, ptr noundef %2, i1 noundef zeroext false, i8 noundef zeroext 5, i32 noundef -2147483648)
  br label %20

11:                                               ; preds = %3
  %12 = load i32, ptr @hf_lldp_mac_address, align 4
  %13 = call ptr @proto_tree_add_item(ptr noundef %2, i32 noundef %12, ptr noundef %0, i32 noundef 1, i32 noundef 6, i32 noundef 0)
  br label %20

14:                                               ; preds = %3
  %15 = add i32 %5, -1
  %16 = load i32, ptr @hf_elink_interface_label, align 4
  %17 = call ptr @proto_tree_add_item(ptr noundef %2, i32 noundef %16, ptr noundef %0, i32 noundef 1, i32 noundef %15, i32 noundef 0)
  br label %20

18:                                               ; preds = %3
  %19 = call i32 @dissect_electronic_key_format(ptr noundef %0, i32 noundef 1, ptr noundef %2, i1 noundef zeroext false, i8 noundef zeroext 5, i32 noundef 0)
  br label %20

20:                                               ; preds = %3, %18, %14, %11, %9
  %21 = call i32 @tvb_reported_length(ptr noundef %0)
  call void @llvm.lifetime.end.p0(i64 4, ptr nonnull %4) #12
  ret i32 %21
}